; Function Attrs: nounwind uwtable
define ptr @l_Lean_Elab_OpenDecl_elabOpenDecl___at_Lean_Elab_Term_elabOpen___spec__3___lambda__1(ptr readnone captures(none) %0, ptr noundef %1, ptr readnone captures(none) %2, ptr readnone captures(none) %3, ptr readnone captures(none) %4, ptr readnone captures(none) %5, ptr readnone captures(none) %6, ptr readnone captures(none) %7, ptr noundef %8) local_unnamed_addr #0 {
  %10 = tail call ptr @lean_st_ref_get(ptr noundef %1, ptr noundef %8) #6
  %.val = load i32, ptr %10, align 4, !tbaa !8
  %11 = icmp eq i32 %.val, 1
  %12 = getelementptr inbounds nuw i8, ptr %10, i64 8
  %13 = load ptr, ptr %12, align 8, !tbaa !4
  br i1 %11, label %14, label %34

14:                                               ; preds = %9
  %15 = getelementptr inbounds nuw i8, ptr %13, i64 8
  %16 = load ptr, ptr %15, align 8, !tbaa !4
  %17 = ptrtoint ptr %16 to i64
  %18 = and i64 %17, 1
  %.not46 = icmp eq i64 %18, 0
  br i1 %.not46, label %19, label %lean_inc.exit28

19:                                               ; preds = %14
  %.val.i = load i32, ptr %16, align 4, !tbaa !8
  %20 = icmp sgt i32 %.val.i, 0
  br i1 %20, label %21, label %23, !prof !15

21:                                               ; preds = %19
  %22 = add nuw i32 %.val.i, 1
  store i32 %22, ptr %16, align 4, !tbaa !8
  br label %lean_inc.exit28

23:                                               ; preds = %19
  %.not.i33 = icmp eq i32 %.val.i, 0
  br i1 %.not.i33, label %lean_inc.exit28, label %24

24:                                               ; preds = %23
  tail call void @lean_inc_ref_cold(ptr noundef nonnull %16) #6
  br label %lean_inc.exit28

lean_inc.exit28:                                  ; preds = %24, %23, %21, %14
  %25 = ptrtoint ptr %13 to i64
  %26 = and i64 %25, 1
  %.not47 = icmp eq i64 %26, 0
  br i1 %.not47, label %27, label %lean_dec.exit25

27:                                               ; preds = %lean_inc.exit28
  %28 = load i32, ptr %13, align 4, !tbaa !8
  %29 = icmp sgt i32 %28, 1
  br i1 %29, label %30, label %32, !prof !15

30:                                               ; preds = %27
  %31 = add nsw i32 %28, -1
  store i32 %31, ptr %13, align 4, !tbaa !8
  br label %lean_dec.exit25

32:                                               ; preds = %27
  %.not.i = icmp eq i32 %28, 0
  br i1 %.not.i, label %lean_dec.exit25, label %33

33:                                               ; preds = %32
  tail call void @lean_dec_ref_cold(ptr noundef nonnull %13) #6
  br label %lean_dec.exit25

lean_dec.exit25:                                  ; preds = %33, %32, %30, %lean_inc.exit28
  store ptr %16, ptr %12, align 8, !tbaa !4
  br label %85

34:                                               ; preds = %9
  %35 = getelementptr inbounds nuw i8, ptr %10, i64 16
  %36 = load ptr, ptr %35, align 8, !tbaa !4
  %37 = ptrtoint ptr %36 to i64
  %38 = and i64 %37, 1
  %.not = icmp eq i64 %38, 0
  br i1 %.not, label %39, label %lean_inc.exit27

39:                                               ; preds = %34
  %.val.i34 = load i32, ptr %36, align 4, !tbaa !8
  %40 = icmp sgt i32 %.val.i34, 0
  br i1 %40, label %41, label %43, !prof !15

41:                                               ; preds = %39
  %42 = add nuw i32 %.val.i34, 1
  store i32 %42, ptr %36, align 4, !tbaa !8
  br label %lean_inc.exit27

43:                                               ; preds = %39
  %.not.i35 = icmp eq i32 %.val.i34, 0
  br i1 %.not.i35, label %lean_inc.exit27, label %44

44:                                               ; preds = %43
  tail call void @lean_inc_ref_cold(ptr noundef nonnull %36) #6
  br label %lean_inc.exit27

lean_inc.exit27:                                  ; preds = %44, %43, %41, %34
  %45 = ptrtoint ptr %13 to i64
  %46 = and i64 %45, 1
  %.not43 = icmp eq i64 %46, 0
  br i1 %.not43, label %47, label %lean_inc.exit26

47:                                               ; preds = %lean_inc.exit27
  %.val.i37 = load i32, ptr %13, align 4, !tbaa !8
  %48 = icmp sgt i32 %.val.i37, 0
  br i1 %48, label %49, label %51, !prof !15

49:                                               ; preds = %47
  %50 = add nuw i32 %.val.i37, 1
  store i32 %50, ptr %13, align 4, !tbaa !8
  br label %lean_inc.exit26

51:                                               ; preds = %47
  %.not.i38 = icmp eq i32 %.val.i37, 0
  br i1 %.not.i38, label %lean_inc.exit26, label %52

52:                                               ; preds = %51
  tail call void @lean_inc_ref_cold(ptr noundef nonnull %13) #6
  br label %lean_inc.exit26

lean_inc.exit26:                                  ; preds = %52, %51, %49, %lean_inc.exit27
  %53 = ptrtoint ptr %10 to i64
  %54 = and i64 %53, 1
  %.not44 = icmp eq i64 %54, 0
  br i1 %.not44, label %55, label %lean_dec.exit24

55:                                               ; preds = %lean_inc.exit26
  %56 = load i32, ptr %10, align 4, !tbaa !8
  %57 = icmp sgt i32 %56, 1
  br i1 %57, label %58, label %60, !prof !15

58:                                               ; preds = %55
  %59 = add nsw i32 %56, -1
  store i32 %59, ptr %10, align 4, !tbaa !8
  br label %lean_dec.exit24

60:                                               ; preds = %55
  %.not.i29 = icmp eq i32 %56, 0
  br i1 %.not.i29, label %lean_dec.exit24, label %61

61:                                               ; preds = %60
  tail call void @lean_dec_ref_cold(ptr noundef nonnull %10) #6
  br label %lean_dec.exit24

lean_dec.exit24:                                  ; preds = %61, %60, %58, %lean_inc.exit26
  %62 = getelementptr inbounds nuw i8, ptr %13, i64 8
  %63 = load ptr, ptr %62, align 8, !tbaa !4
  %64 = ptrtoint ptr %63 to i64
  %65 = and i64 %64, 1
  %.not45 = icmp eq i64 %65, 0
  br i1 %.not45, label %66, label %lean_inc.exit

66:                                               ; preds = %lean_dec.exit24
  %.val.i40 = load i32, ptr %63, align 4, !tbaa !8
  %67 = icmp sgt i32 %.val.i40, 0
  br i1 %67, label %68, label %70, !prof !15

68:                                               ; preds = %66
  %69 = add nuw i32 %.val.i40, 1
  store i32 %69, ptr %63, align 4, !tbaa !8
  br label %lean_inc.exit

70:                                               ; preds = %66
  %.not.i41 = icmp eq i32 %.val.i40, 0
  br i1 %.not.i41, label %lean_inc.exit, label %71

71:                                               ; preds = %70
  tail call void @lean_inc_ref_cold(ptr noundef nonnull %63) #6
  br label %lean_inc.exit

lean_inc.exit:                                    ; preds = %71, %70, %68, %lean_dec.exit24
  br i1 %.not43, label %72, label %lean_dec.exit

72:                                               ; preds = %lean_inc.exit
  %73 = load i32, ptr %13, align 4, !tbaa !8
  %74 = icmp sgt i32 %73, 1
  br i1 %74, label %75, label %77, !prof !15

75:                                               ; preds = %72
  %76 = add nsw i32 %73, -1
  store i32 %76, ptr %13, align 4, !tbaa !8
  br label %lean_dec.exit

77:                                               ; preds = %72
  %.not.i31 = icmp eq i32 %73, 0
  br i1 %.not.i31, label %lean_dec.exit, label %78

78:                                               ; preds = %77
  tail call void @lean_dec_ref_cold(ptr noundef nonnull %13) #6
  br label %lean_dec.exit

lean_dec.exit:                                    ; preds = %78, %77, %75, %lean_inc.exit
  tail call void @lean_inc_heartbeat() #6
  %79 = tail call noalias ptr @mi_malloc_small(i64 noundef 24) #6
  %80 = icmp eq ptr %79, null
  br i1 %80, label %81, label %lean_alloc_ctor.exit

81:                                               ; preds = %lean_dec.exit
  tail call void @lean_internal_panic_out_of_memory() #7
  unreachable

lean_alloc_ctor.exit:                             ; preds = %lean_dec.exit
  %82 = getelementptr inbounds nuw i8, ptr %79, i64 4
  store i32 1, ptr %79, align 4, !tbaa !8
  store i32 131096, ptr %82, align 4
  %83 = getelementptr inbounds nuw i8, ptr %79, i64 8
  store ptr %63, ptr %83, align 8, !tbaa !4
  %84 = getelementptr inbounds nuw i8, ptr %79, i64 16
  store ptr %36, ptr %84, align 8, !tbaa !4
  br label %85

85:                                               ; preds = %lean_alloc_ctor.exit, %lean_dec.exit25
  %.0 = phi ptr [ %10, %lean_dec.exit25 ], [ %79, %lean_alloc_ctor.exit ]
  ret ptr %.0
}